; Function Attrs: nounwind uwtable
define void @dt_bauhaus_combobox_clear(ptr noundef %0) local_unnamed_addr #0 {
  %2 = load atomic i64, ptr @dt_bh_get_type.static_g_define_type_id seq_cst, align 8
  %.not.i.i = icmp eq i64 %2, 0
  br i1 %.not.i.i, label %3, label %DT_BAUHAUS_WIDGET.exit

3:                                                ; preds = %1
  %4 = tail call i32 @g_once_init_enter(ptr noundef nonnull @dt_bh_get_type.static_g_define_type_id) #19
  %.not4.i.i = icmp eq i32 %4, 0
  br i1 %.not4.i.i, label %DT_BAUHAUS_WIDGET.exit, label %5

5:                                                ; preds = %3
  %6 = tail call fastcc i64 @dt_bh_get_type_once()
  tail call void @g_once_init_leave(ptr noundef nonnull @dt_bh_get_type.static_g_define_type_id, i64 noundef %6) #19
  br label %DT_BAUHAUS_WIDGET.exit

DT_BAUHAUS_WIDGET.exit:                           ; preds = %1, %3, %5
  %7 = load i64, ptr @dt_bh_get_type.static_g_define_type_id, align 8, !tbaa !6
  %8 = tail call ptr @g_type_check_instance_cast(ptr noundef %0, i64 noundef %7) #19
  %9 = getelementptr inbounds nuw i8, ptr %8, i64 40
  %10 = load i32, ptr %9, align 8, !tbaa !105
  %.not = icmp eq i32 %10, 2
  br i1 %.not, label %11, label %15

11:                                               ; preds = %DT_BAUHAUS_WIDGET.exit
  %12 = getelementptr inbounds nuw i8, ptr %8, i64 408
  store i32 -1, ptr %12, align 8, !tbaa !137
  %13 = getelementptr inbounds nuw i8, ptr %8, i64 440
  %14 = load ptr, ptr %13, align 8, !tbaa !128
  tail call void @g_ptr_array_set_size(ptr noundef %14, i32 noundef 0) #19
  br label %15

15:                                               ; preds = %DT_BAUHAUS_WIDGET.exit, %11
  ret void
}